; ModuleID = '44/5.c'
source_filename = "44/5.c"
target datalayout = "e-m:e-p270:32:32-p271:32:32-p272:64:64-i64:64-f80:128-n8:16:32:64-S128"
target triple = "x86_64-pc-linux-gnu"

@.str = private unnamed_addr constant [3 x i8] c"%d\00", align 1
@.str.1 = private unnamed_addr constant [4 x i8] c"%d\0A\00", align 1

; Function Attrs: noinline nounwind uwtable
define dso_local void @main() #0 {
  %1 = alloca [6 x i32], align 16
  %2 = alloca [6 x i32], align 16
  %3 = alloca i32, align 4
  store i32 0, i32* %3, align 4
  br label %4

4:                                                ; preds = %12, %0
  %5 = load i32, i32* %3, align 4
  %6 = icmp slt i32 %5, 6
  br i1 %6, label %7, label %15

7:                                                ; preds = %4
  %8 = load i32, i32* %3, align 4
  %9 = sext i32 %8 to i64
  %10 = getelementptr inbounds [6 x i32], [6 x i32]* %1, i64 0, i64 %9
  %11 = call i32 (i8*, ...) @__isoc99_scanf(i8* getelementptr inbounds ([3 x i8], [3 x i8]* @.str, i64 0, i64 0), i32* %10)
  br label %12

12:                                               ; preds = %7
  %13 = load i32, i32* %3, align 4
  %14 = add nsw i32 %13, 1
  store i32 %14, i32* %3, align 4
  br label %4

15:                                               ; preds = %4
  store i32 0, i32* %3, align 4
  br label %16

16:                                               ; preds = %28, %15
  %17 = load i32, i32* %3, align 4
  %18 = icmp slt i32 %17, 6
  br i1 %18, label %19, label %31

19:                                               ; preds = %16
  %20 = load i32, i32* %3, align 4
  %21 = sext i32 %20 to i64
  %22 = getelementptr inbounds [6 x i32], [6 x i32]* %1, i64 0, i64 %21
  %23 = load i32, i32* %22, align 4
  %24 = call i32 @reverse(i32 %23)
  %25 = load i32, i32* %3, align 4
  %26 = sext i32 %25 to i64
  %27 = getelementptr inbounds [6 x i32], [6 x i32]* %2, i64 0, i64 %26
  store i32 %24, i32* %27, align 4
  br label %28

28:                                               ; preds = %19
  %29 = load i32, i32* %3, align 4
  %30 = add nsw i32 %29, 1
  store i32 %30, i32* %3, align 4
  br label %16

31:                                               ; preds = %16
  store i32 0, i32* %3, align 4
  br label %32

32:                                               ; preds = %41, %31
  %33 = load i32, i32* %3, align 4
  %34 = icmp slt i32 %33, 6
  br i1 %34, label %35, label %44

35:                                               ; preds = %32
  %36 = load i32, i32* %3, align 4
  %37 = sext i32 %36 to i64
  %38 = getelementptr inbounds [6 x i32], [6 x i32]* %2, i64 0, i64 %37
  %39 = load i32, i32* %38, align 4
  %40 = call i32 (i8*, ...) @printf(i8* getelementptr inbounds ([4 x i8], [4 x i8]* @.str.1, i64 0, i64 0), i32 %39)
  br label %41

41:                                               ; preds = %35
  %42 = load i32, i32* %3, align 4
  %43 = add nsw i32 %42, 1
  store i32 %43, i32* %3, align 4
  br label %32

44:                                               ; preds = %32
  ret void
}

declare dso_local i32 @__isoc99_scanf(i8*, ...) #1

; Function Attrs: noinline nounwind uwtable
define dso_local i32 @reverse(i32 %0) #0 {
  %2 = alloca i32, align 4
  %3 = alloca i32, align 4
  %4 = alloca i32, align 4
  %5 = alloca i32, align 4
  %6 = alloca i32, align 4
  %7 = alloca i32, align 4
  store i32 %0, i32* %2, align 4
  store i32 0, i32* %5, align 4
  %8 = load i32, i32* %2, align 4
  store i32 %8, i32* %6, align 4
  store i32 0, i32* %7, align 4
  %9 = load i32, i32* %2, align 4
  %10 = icmp sge i32 %9, 0
  br i1 %10, label %11, label %58

11:                                               ; preds = %1
  br label %12

12:                                               ; preds = %15, %11
  %13 = load i32, i32* %6, align 4
  %14 = icmp sgt i32 %13, 0
  br i1 %14, label %15, label %20

15:                                               ; preds = %12
  %16 = load i32, i32* %6, align 4
  %17 = sdiv i32 %16, 10
  store i32 %17, i32* %6, align 4
  %18 = load i32, i32* %5, align 4
  %19 = add nsw i32 %18, 1
  store i32 %19, i32* %5, align 4
  br label %12

20:                                               ; preds = %12
  %21 = load i32, i32* %5, align 4
  %22 = sub nsw i32 %21, 1
  store i32 %22, i32* %3, align 4
  br label %23

23:                                               ; preds = %54, %20
  %24 = load i32, i32* %3, align 4
  %25 = icmp sge i32 %24, 0
  br i1 %25, label %26, label %57

26:                                               ; preds = %23
  %27 = load i32, i32* %2, align 4
  %28 = load i32, i32* %3, align 4
  %29 = sitofp i32 %28 to double
  %30 = call double @pow(double 1.000000e+01, double %29) #3
  %31 = fptosi double %30 to i32
  %32 = sdiv i32 %27, %31
  store i32 %32, i32* %4, align 4
  %33 = load i32, i32* %7, align 4
  %34 = load i32, i32* %4, align 4
  %35 = load i32, i32* %5, align 4
  %36 = load i32, i32* %3, align 4
  %37 = sub nsw i32 %35, %36
  %38 = sub nsw i32 %37, 1
  %39 = sitofp i32 %38 to double
  %40 = call double @pow(double 1.000000e+01, double %39) #3
  %41 = fptosi double %40 to i32
  %42 = mul nsw i32 %34, %41
  %43 = add nsw i32 %33, %42
  store i32 %43, i32* %7, align 4
  %44 = load i32, i32* %2, align 4
  %45 = sitofp i32 %44 to double
  %46 = load i32, i32* %4, align 4
  %47 = sitofp i32 %46 to double
  %48 = load i32, i32* %3, align 4
  %49 = sitofp i32 %48 to double
  %50 = call double @pow(double 1.000000e+01, double %49) #3
  %51 = fmul double %47, %50
  %52 = fsub double %45, %51
  %53 = fptosi double %52 to i32
  store i32 %53, i32* %2, align 4
  br label %54

54:                                               ; preds = %26
  %55 = load i32, i32* %3, align 4
  %56 = add nsw i32 %55, -1
  store i32 %56, i32* %3, align 4
  br label %23

57:                                               ; preds = %23
  br label %105

58:                                               ; preds = %1
  br label %59

59:                                               ; preds = %62, %58
  %60 = load i32, i32* %6, align 4
  %61 = icmp slt i32 %60, 0
  br i1 %61, label %62, label %67

62:                                               ; preds = %59
  %63 = load i32, i32* %6, align 4
  %64 = sdiv i32 %63, 10
  store i32 %64, i32* %6, align 4
  %65 = load i32, i32* %5, align 4
  %66 = add nsw i32 %65, 1
  store i32 %66, i32* %5, align 4
  br label %59

67:                                               ; preds = %59
  %68 = load i32, i32* %5, align 4
  %69 = sub nsw i32 %68, 1
  store i32 %69, i32* %3, align 4
  br label %70

70:                                               ; preds = %101, %67
  %71 = load i32, i32* %3, align 4
  %72 = icmp sge i32 %71, 0
  br i1 %72, label %73, label %104

73:                                               ; preds = %70
  %74 = load i32, i32* %2, align 4
  %75 = load i32, i32* %3, align 4
  %76 = sitofp i32 %75 to double
  %77 = call double @pow(double 1.000000e+01, double %76) #3
  %78 = fptosi double %77 to i32
  %79 = sdiv i32 %74, %78
  store i32 %79, i32* %4, align 4
  %80 = load i32, i32* %7, align 4
  %81 = load i32, i32* %4, align 4
  %82 = load i32, i32* %5, align 4
  %83 = load i32, i32* %3, align 4
  %84 = sub nsw i32 %82, %83
  %85 = sub nsw i32 %84, 1
  %86 = sitofp i32 %85 to double
  %87 = call double @pow(double 1.000000e+01, double %86) #3
  %88 = fptosi double %87 to i32
  %89 = mul nsw i32 %81, %88
  %90 = add nsw i32 %80, %89
  store i32 %90, i32* %7, align 4
  %91 = load i32, i32* %2, align 4
  %92 = sitofp i32 %91 to double
  %93 = load i32, i32* %4, align 4
  %94 = sitofp i32 %93 to double
  %95 = load i32, i32* %3, align 4
  %96 = sitofp i32 %95 to double
  %97 = call double @pow(double 1.000000e+01, double %96) #3
  %98 = fmul double %94, %97
  %99 = fsub double %92, %98
  %100 = fptosi double %99 to i32
  store i32 %100, i32* %2, align 4
  br label %101

101:                                              ; preds = %73
  %102 = load i32, i32* %3, align 4
  %103 = add nsw i32 %102, -1
  store i32 %103, i32* %3, align 4
  br label %70

104:                                              ; preds = %70
  br label %105

105:                                              ; preds = %104, %57
  %106 = load i32, i32* %7, align 4
  ret i32 %106
}

declare dso_local i32 @printf(i8*, ...) #1

; Function Attrs: nounwind
declare dso_local double @pow(double, double) #2


!llvm.module.flags = !{!0}
!llvm.ident = !{!1}

!0 = !{i32 1, !"wchar_size", i32 4}
!1 = !{!"clang version 10.0.0-4ubuntu1 "}
